; ModuleID = 'source-C-CXX/25/1082.c'
source_filename = "source-C-CXX/25/1082.c"
target datalayout = "e-m:e-p270:32:32-p271:32:32-p272:64:64-i64:64-f80:128-n8:16:32:64-S128"
target triple = "x86_64-pc-linux-gnu"

; Function Attrs: nounwind sspstrong uwtable
define dso_local i32 @main() local_unnamed_addr #0 {
  %1 = alloca [101 x i8], align 16
  %2 = alloca [101 x i8], align 16
  %3 = getelementptr inbounds [101 x i8], [101 x i8]* %1, i64 0, i64 0
  call void @llvm.lifetime.start.p0i8(i64 101, i8* nonnull %3) #5
  %4 = getelementptr inbounds [101 x i8], [101 x i8]* %2, i64 0, i64 0
  call void @llvm.lifetime.start.p0i8(i64 101, i8* nonnull %4) #5
  %5 = call i32 (i8*, ...) bitcast (i32 (...)* @gets to i32 (i8*, ...)*)(i8* nonnull %3) #5
  %6 = call i64 @strlen(i8* noundef nonnull %3) #6
  %7 = trunc i64 %6 to i32
  %8 = load i8, i8* %3, align 16, !tbaa !5
  store i8 %8, i8* %4, align 16, !tbaa !5
  %9 = icmp sgt i32 %7, 1
  br i1 %9, label %10, label %40

10:                                               ; preds = %0, %35
  %11 = phi i32 [ %37, %35 ], [ 1, %0 ]
  %12 = phi i32 [ %38, %35 ], [ 1, %0 ]
  %13 = sext i32 %12 to i64
  %14 = getelementptr inbounds [101 x i8], [101 x i8]* %1, i64 0, i64 %13
  %15 = load i8, i8* %14, align 1, !tbaa !5
  %16 = icmp eq i8 %15, 32
  br i1 %16, label %17, label %27

17:                                               ; preds = %10
  %18 = add nsw i32 %12, 1
  %19 = sext i32 %18 to i64
  %20 = getelementptr inbounds [101 x i8], [101 x i8]* %1, i64 0, i64 %19
  %21 = load i8, i8* %20, align 1, !tbaa !5
  %22 = icmp eq i8 %21, 32
  br i1 %22, label %35, label %23

23:                                               ; preds = %17
  %24 = sext i32 %11 to i64
  %25 = getelementptr inbounds [101 x i8], [101 x i8]* %2, i64 0, i64 %24
  store i8 32, i8* %25, align 1, !tbaa !5
  %26 = add nsw i32 %11, 1
  br label %27

27:                                               ; preds = %10, %23
  %28 = phi i32 [ %26, %23 ], [ %11, %10 ]
  %29 = phi i8 [ %21, %23 ], [ %15, %10 ]
  %30 = phi i32 [ 2, %23 ], [ 1, %10 ]
  %31 = phi i32 [ %18, %23 ], [ %12, %10 ]
  %32 = sext i32 %28 to i64
  %33 = getelementptr inbounds [101 x i8], [101 x i8]* %2, i64 0, i64 %32
  store i8 %29, i8* %33, align 1, !tbaa !5
  %34 = add nsw i32 %11, %30
  br label %35

35:                                               ; preds = %27, %17
  %36 = phi i32 [ %12, %17 ], [ %31, %27 ]
  %37 = phi i32 [ %11, %17 ], [ %34, %27 ]
  %38 = add nsw i32 %36, 1
  %39 = icmp slt i32 %38, %7
  br i1 %39, label %10, label %40, !llvm.loop !8

40:                                               ; preds = %35, %0
  %41 = phi i32 [ 1, %0 ], [ %37, %35 ]
  %42 = sext i32 %41 to i64
  %43 = getelementptr inbounds [101 x i8], [101 x i8]* %2, i64 0, i64 %42
  store i8 0, i8* %43, align 1, !tbaa !5
  %44 = call i64 @strlen(i8* noundef nonnull %4) #6
  %45 = trunc i64 %44 to i32
  %46 = icmp sgt i32 %45, 0
  br i1 %46, label %47, label %57

47:                                               ; preds = %40
  %48 = and i64 %44, 4294967295
  br label %49

49:                                               ; preds = %47, %49
  %50 = phi i64 [ 0, %47 ], [ %55, %49 ]
  %51 = getelementptr inbounds [101 x i8], [101 x i8]* %2, i64 0, i64 %50
  %52 = load i8, i8* %51, align 1, !tbaa !5
  %53 = sext i8 %52 to i32
  %54 = call i32 @putchar(i32 %53)
  %55 = add nuw nsw i64 %50, 1
  %56 = icmp eq i64 %55, %48
  br i1 %56, label %57, label %49, !llvm.loop !10

57:                                               ; preds = %49, %40
  call void @llvm.lifetime.end.p0i8(i64 101, i8* nonnull %4) #5
  call void @llvm.lifetime.end.p0i8(i64 101, i8* nonnull %3) #5
  ret i32 0
}

; Function Attrs: argmemonly mustprogress nofree nosync nounwind willreturn
declare void @llvm.lifetime.start.p0i8(i64 immarg, i8* nocapture) #1

declare i32 @gets(...) local_unnamed_addr #2

; Function Attrs: argmemonly mustprogress nofree nounwind readonly willreturn
declare i64 @strlen(i8* nocapture) local_unnamed_addr #3

; Function Attrs: argmemonly mustprogress nofree nosync nounwind willreturn
declare void @llvm.lifetime.end.p0i8(i64 immarg, i8* nocapture) #1

; Function Attrs: nofree nounwind
declare noundef i32 @putchar(i32 noundef) local_unnamed_addr #4


!llvm.module.flags = !{!0, !1, !2, !3}
!llvm.ident = !{!4}

!0 = !{i32 1, !"wchar_size", i32 4}
!1 = !{i32 7, !"PIC Level", i32 2}
!2 = !{i32 7, !"PIE Level", i32 2}
!3 = !{i32 7, !"uwtable", i32 1}
!4 = !{!"clang version 13.0.0"}
!5 = !{!6, !6, i64 0}
!6 = !{!"omnipotent char", !7, i64 0}
!7 = !{!"Simple C/C++ TBAA"}
!8 = distinct !{!8, !9}
!9 = !{!"llvm.loop.mustprogress"}
!10 = distinct !{!10, !9}
